; Function Attrs: mustprogress uwtable
define noundef i32 @cvscript_colvar_getvolmapids(ptr noundef %0, i32 noundef %1, ptr nocapture noundef readnone %2) local_unnamed_addr #0 personality ptr @__gxx_personality_v0 {
  %4 = tail call noundef ptr @_ZN12colvarmodule4mainEv()
  %5 = load ptr, ptr @_ZN12colvarmodule5proxyE, align 8
  %6 = getelementptr inbounds i8, ptr %5, i64 808
  %7 = load ptr, ptr %6, align 8
  %8 = tail call noundef i32 @_ZN12colvarscript16clear_str_resultEv(ptr noundef nonnull align 8 dereferenceable(304) %7)
  %9 = tail call noundef i32 @_ZN12colvarscript15check_cmd_nargsILNS_11Object_typeE1EEEiPKciii(ptr noundef nonnull align 8 dereferenceable(304) %7, ptr noundef nonnull @.str.39, i32 noundef %1, i32 noundef 0, i32 noundef 0)
  %.not = icmp eq i32 %9, 0
  br i1 %.not, label %10, label %13

10:                                               ; preds = %3
  %11 = tail call noundef nonnull align 8 dereferenceable(24) ptr @_ZN6colvar14get_volmap_idsEv(ptr noundef nonnull align 8 dereferenceable(4624) %0)
  %12 = tail call noundef i32 @_ZN12colvarscript18set_result_int_vecERKSt6vectorIiSaIiEEPh(ptr noundef nonnull align 8 dereferenceable(304) %7, ptr noundef nonnull align 8 dereferenceable(24) %11, ptr noundef null)
  br label %13

13:                                               ; preds = %3, %10
  %.0 = phi i32 [ 0, %10 ], [ -1, %3 ]
  ret i32 %.0
}